; Function Attrs: nounwind uwtable
define void @Aig_ObjCollectMulti_rec(ptr noundef %0, ptr noundef %1, ptr noundef captures(none) %2) local_unnamed_addr #1 {
  %4 = getelementptr i8, ptr %0, i64 24
  br label %tailrecurse

tailrecurse:                                      ; preds = %54, %3
  %.tr23 = phi ptr [ %1, %3 ], [ %.val21, %54 ]
  %.not = icmp eq ptr %0, %.tr23
  br i1 %.not, label %54, label %5

5:                                                ; preds = %tailrecurse
  %6 = ptrtoint ptr %.tr23 to i64
  %7 = and i64 %6, 1
  %.not15 = icmp eq i64 %7, 0
  br i1 %.not15, label %8, label %14

8:                                                ; preds = %5
  %9 = getelementptr i8, ptr %.tr23, i64 24
  %.val = load i64, ptr %9, align 8
  %10 = and i64 %.val, 7
  %.not22 = icmp eq i64 %10, 2
  br i1 %.not22, label %14, label %11

11:                                               ; preds = %8
  %.val18 = load i64, ptr %4, align 8
  %12 = xor i64 %.val18, %.val
  %13 = and i64 %12, 7
  %.not17 = icmp eq i64 %13, 0
  br i1 %.not17, label %54, label %14

14:                                               ; preds = %11, %8, %5
  %15 = getelementptr inbounds nuw i8, ptr %2, i64 4
  %16 = load i32, ptr %15, align 4, !tbaa !22
  %17 = icmp sgt i32 %16, 0
  br i1 %17, label %.lr.ph.i, label %._crit_edge.i

.lr.ph.i:                                         ; preds = %14
  %18 = getelementptr inbounds nuw i8, ptr %2, i64 8
  %19 = load ptr, ptr %18, align 8, !tbaa !24
  %wide.trip.count.i = zext nneg i32 %16 to i64
  br label %21

20:                                               ; preds = %21
  %indvars.iv.next.i = add nuw nsw i64 %indvars.iv.i, 1
  %exitcond.not.i = icmp eq i64 %indvars.iv.next.i, %wide.trip.count.i
  br i1 %exitcond.not.i, label %._crit_edge.i, label %21, !llvm.loop !41

21:                                               ; preds = %20, %.lr.ph.i
  %indvars.iv.i = phi i64 [ 0, %.lr.ph.i ], [ %indvars.iv.next.i, %20 ]
  %22 = getelementptr inbounds nuw ptr, ptr %19, i64 %indvars.iv.i
  %23 = load ptr, ptr %22, align 8, !tbaa !25
  %24 = icmp eq ptr %23, %.tr23
  br i1 %24, label %Vec_PtrPushUnique.exit, label %20

._crit_edge.i:                                    ; preds = %20, %14
  %25 = load i32, ptr %2, align 8, !tbaa !42
  %26 = icmp eq i32 %16, %25
  br i1 %26, label %27, label %.Vec_PtrGrow.exit11_crit_edge.i.i

.Vec_PtrGrow.exit11_crit_edge.i.i:                ; preds = %._crit_edge.i
  %.phi.trans.insert.i.i = getelementptr inbounds nuw i8, ptr %2, i64 8
  %.pre.i.i = load ptr, ptr %.phi.trans.insert.i.i, align 8, !tbaa !24
  br label %Vec_PtrPush.exit.i

27:                                               ; preds = %._crit_edge.i
  %28 = icmp slt i32 %16, 16
  br i1 %28, label %29, label %37

29:                                               ; preds = %27
  %30 = getelementptr inbounds nuw i8, ptr %2, i64 8
  %31 = load ptr, ptr %30, align 8, !tbaa !24
  %.not9.i.i.i = icmp eq ptr %31, null
  br i1 %.not9.i.i.i, label %34, label %32

32:                                               ; preds = %29
  %33 = tail call dereferenceable_or_null(128) ptr @realloc(ptr noundef nonnull %31, i64 noundef 128) #27
  br label %Vec_PtrGrow.exit.i.i

34:                                               ; preds = %29
  %35 = tail call noalias dereferenceable_or_null(128) ptr @malloc(i64 noundef 128) #28
  br label %Vec_PtrGrow.exit.i.i

Vec_PtrGrow.exit.i.i:                             ; preds = %34, %32
  %36 = phi ptr [ %33, %32 ], [ %35, %34 ]
  store ptr %36, ptr %30, align 8, !tbaa !24
  store i32 16, ptr %2, align 8, !tbaa !42
  br label %Vec_PtrPush.exit.i

37:                                               ; preds = %27
  %38 = shl nuw nsw i32 %16, 1
  %39 = getelementptr inbounds nuw i8, ptr %2, i64 8
  %40 = load ptr, ptr %39, align 8, !tbaa !24
  %.not9.i10.i.i = icmp eq ptr %40, null
  %41 = zext nneg i32 %38 to i64
  %42 = shl nuw nsw i64 %41, 3
  br i1 %.not9.i10.i.i, label %45, label %43

43:                                               ; preds = %37
  %44 = tail call ptr @realloc(ptr noundef nonnull %40, i64 noundef %42) #27
  br label %47

45:                                               ; preds = %37
  %46 = tail call noalias ptr @malloc(i64 noundef %42) #28
  br label %47

47:                                               ; preds = %45, %43
  %48 = phi ptr [ %44, %43 ], [ %46, %45 ]
  store ptr %48, ptr %39, align 8, !tbaa !24
  store i32 %38, ptr %2, align 8, !tbaa !42
  br label %Vec_PtrPush.exit.i

Vec_PtrPush.exit.i:                               ; preds = %47, %Vec_PtrGrow.exit.i.i, %.Vec_PtrGrow.exit11_crit_edge.i.i
  %49 = phi ptr [ %.pre.i.i, %.Vec_PtrGrow.exit11_crit_edge.i.i ], [ %48, %47 ], [ %36, %Vec_PtrGrow.exit.i.i ]
  %50 = load i32, ptr %15, align 4, !tbaa !22
  %51 = add nsw i32 %50, 1
  store i32 %51, ptr %15, align 4, !tbaa !22
  %52 = sext i32 %50 to i64
  %53 = getelementptr inbounds ptr, ptr %49, i64 %52
  store ptr %.tr23, ptr %53, align 8, !tbaa !25
  br label %Vec_PtrPushUnique.exit

54:                                               ; preds = %11, %tailrecurse
  %55 = getelementptr i8, ptr %.tr23, i64 8
  %.val20 = load ptr, ptr %55, align 8, !tbaa !32
  tail call void @Aig_ObjCollectMulti_rec(ptr noundef %0, ptr noundef %.val20, ptr noundef %2)
  %56 = getelementptr i8, ptr %.tr23, i64 16
  %.val21 = load ptr, ptr %56, align 8, !tbaa !35
  br label %tailrecurse

Vec_PtrPushUnique.exit:                           ; preds = %21, %Vec_PtrPush.exit.i
  ret void
}